target datalayout = "e-m:e-p270:32:32-p271:32:32-p272:64:64-i64:64-i128:128-f80:128-n8:16:32:64-S128"
target triple = "x86_64-pc-linux-gnu"

%struct.AVCodecContext = type { ptr, i32, i32, ptr, i32, i32, ptr, ptr, ptr, i64, i32, i32, ptr, i32, %struct.AVRational, %struct.AVRational, %struct.AVRational, i32, i32, i32, i32, i32, %struct.AVRational, i32, i32, i32, i32, i32, i32, i32, i32, i32, i32, i32, ptr, ptr, i32, float, float, float, float, float, float, float, float, float, i32, i32, i32, i32, i32, i32, i32, i32, i32, i32, i32, i32, ptr, ptr, ptr, i32, i32, i32, i32, i32, i32, i32, i32, i32, i32, %struct.AVChannelLayout, i32, i32, i32, i32, i32, i32, i32, i32, ptr, i32, i32, i32, float, float, i32, i32, i32, i32, i32, ptr, i64, i64, float, float, i32, i32, ptr, ptr, i32, i32, i32, i32, i32, ptr, ptr, ptr, ptr, i32, i32, [8 x i64], i32, i32, i32, i32, i32, i32, i32, ptr, ptr, i32, i32, i32, i32, i32, i32, i32, i32, i32, i32, ptr, ptr, i32, i32, ptr, ptr, ptr, ptr, i32, i32, i64, i32, i32, i64, ptr, i64, ptr, i32, ptr, i32 }
%struct.AVRational = type { i32, i32 }
%struct.AVChannelLayout = type { i32, i32, %union.anon.1, ptr }
%union.anon.1 = type { i64 }
%struct.RoqEncContext = type { %struct.RoqContext, ptr, %struct.AVLFG, i64, ptr, ptr, ptr, ptr, i32, ptr, ptr, %struct.RoqTempData, [1024 x %struct.roq_cell], [6144 x i32], ptr, ptr, ptr, i32, i32 }
%struct.RoqContext = type { ptr, ptr, ptr, ptr, i32, i32, [256 x %struct.roq_cell], [256 x %struct.roq_qcell] }
%struct.roq_cell = type { [4 x i8], i8, i8 }
%struct.roq_qcell = type { [4 x i32] }
%struct.AVLFG = type { [64 x i32], i32 }
%struct.RoqTempData = type { [256 x i32], [256 x i32], [256 x i32], [256 x i32], i32, i32, i32, %struct.RoqCodebooks, [4 x i32] }
%struct.RoqCodebooks = type { i32, i32, [256 x i32], [256 x i32], [3072 x i8], [12288 x i8], [49152 x i8] }

@.str.7 = private unnamed_addr constant [36 x i8] c"Dimensions must be divisible by 16\0A\00", align 1
@.str.8 = private unnamed_addr constant [23 x i8] c"Dimensions are max %d\0A\00", align 1
@.str.9 = private unnamed_addr constant [70 x i8] c"Warning: dimensions not power of two, this is not supported by quake\0A\00", align 1

; Function Attrs: cold nounwind optsize uwtable
define internal i32 @roq_encode_init(ptr noundef %0) #0 {
  %2 = alloca i32, align 4
  %3 = alloca ptr, align 8
  %4 = alloca ptr, align 8
  %5 = alloca ptr, align 8
  %6 = alloca i32, align 4
  store ptr %0, ptr %3, align 8, !tbaa !4
  call void @llvm.lifetime.start.p0(i64 8, ptr %4) #9
  %7 = load ptr, ptr %3, align 8, !tbaa !4
  %8 = getelementptr inbounds nuw %struct.AVCodecContext, ptr %7, i32 0, i32 6
  %9 = load ptr, ptr %8, align 8, !tbaa !9
  store ptr %9, ptr %4, align 8, !tbaa !29
  call void @llvm.lifetime.start.p0(i64 8, ptr %5) #9
  %10 = load ptr, ptr %4, align 8, !tbaa !29
  %11 = getelementptr inbounds nuw %struct.RoqEncContext, ptr %10, i32 0, i32 0
  store ptr %11, ptr %5, align 8, !tbaa !31
  %12 = load ptr, ptr %4, align 8, !tbaa !29
  %13 = getelementptr inbounds nuw %struct.RoqEncContext, ptr %12, i32 0, i32 2
  call void @av_lfg_init(ptr noundef %13, i32 noundef 1)
  %14 = load ptr, ptr %3, align 8, !tbaa !4
  %15 = load ptr, ptr %5, align 8, !tbaa !31
  %16 = getelementptr inbounds nuw %struct.RoqContext, ptr %15, i32 0, i32 1
  store ptr %14, ptr %16, align 8, !tbaa !33
  %17 = load ptr, ptr %4, align 8, !tbaa !29
  %18 = getelementptr inbounds nuw %struct.RoqEncContext, ptr %17, i32 0, i32 8
  store i32 0, ptr %18, align 8, !tbaa !36
  %19 = load ptr, ptr %3, align 8, !tbaa !4
  %20 = getelementptr inbounds nuw %struct.AVCodecContext, ptr %19, i32 0, i32 18
  %21 = load i32, ptr %20, align 8, !tbaa !44
  %22 = and i32 %21, 15
  %23 = icmp ne i32 %22, 0
  br i1 %23, label %30, label %24

24:                                               ; preds = %1
  %25 = load ptr, ptr %3, align 8, !tbaa !4
  %26 = getelementptr inbounds nuw %struct.AVCodecContext, ptr %25, i32 0, i32 19
  %27 = load i32, ptr %26, align 4, !tbaa !45
  %28 = and i32 %27, 15
  %29 = icmp ne i32 %28, 0
  br i1 %29, label %30, label %32

30:                                               ; preds = %24, %1
  %31 = load ptr, ptr %3, align 8, !tbaa !4
  call void (ptr, i32, ptr, ...) @av_log(ptr noundef %31, i32 noundef 16, ptr noundef @.str.7)
  store i32 -22, ptr %2, align 4
  store i32 1, ptr %6, align 4
  br label %206

32:                                               ; preds = %24
  %33 = load ptr, ptr %3, align 8, !tbaa !4
  %34 = getelementptr inbounds nuw %struct.AVCodecContext, ptr %33, i32 0, i32 18
  %35 = load i32, ptr %34, align 8, !tbaa !44
  %36 = icmp sgt i32 %35, 65535
  br i1 %36, label %42, label %37

37:                                               ; preds = %32
  %38 = load ptr, ptr %3, align 8, !tbaa !4
  %39 = getelementptr inbounds nuw %struct.AVCodecContext, ptr %38, i32 0, i32 19
  %40 = load i32, ptr %39, align 4, !tbaa !45
  %41 = icmp sgt i32 %40, 65535
  br i1 %41, label %42, label %49

42:                                               ; preds = %37, %32
  %43 = load ptr, ptr %3, align 8, !tbaa !4
  %44 = load ptr, ptr %4, align 8, !tbaa !29
  %45 = getelementptr inbounds nuw %struct.RoqEncContext, ptr %44, i32 0, i32 18
  %46 = load i32, ptr %45, align 4, !tbaa !46
  %47 = icmp ne i32 %46, 0
  %48 = select i1 %47, i32 32768, i32 65535
  call void (ptr, i32, ptr, ...) @av_log(ptr noundef %43, i32 noundef 16, ptr noundef @.str.8, i32 noundef %48)
  store i32 -22, ptr %2, align 4
  store i32 1, ptr %6, align 4
  br label %206

49:                                               ; preds = %37
  %50 = load ptr, ptr %3, align 8, !tbaa !4
  %51 = getelementptr inbounds nuw %struct.AVCodecContext, ptr %50, i32 0, i32 18
  %52 = load i32, ptr %51, align 8, !tbaa !44
  %53 = load ptr, ptr %3, align 8, !tbaa !4
  %54 = getelementptr inbounds nuw %struct.AVCodecContext, ptr %53, i32 0, i32 18
  %55 = load i32, ptr %54, align 8, !tbaa !44
  %56 = sub nsw i32 %55, 1
  %57 = and i32 %52, %56
  %58 = icmp ne i32 %57, 0
  br i1 %58, label %69, label %59

59:                                               ; preds = %49
  %60 = load ptr, ptr %3, align 8, !tbaa !4
  %61 = getelementptr inbounds nuw %struct.AVCodecContext, ptr %60, i32 0, i32 19
  %62 = load i32, ptr %61, align 4, !tbaa !45
  %63 = load ptr, ptr %3, align 8, !tbaa !4
  %64 = getelementptr inbounds nuw %struct.AVCodecContext, ptr %63, i32 0, i32 19
  %65 = load i32, ptr %64, align 4, !tbaa !45
  %66 = sub nsw i32 %65, 1
  %67 = and i32 %62, %66
  %68 = icmp ne i32 %67, 0
  br i1 %68, label %69, label %71

69:                                               ; preds = %59, %49
  %70 = load ptr, ptr %3, align 8, !tbaa !4
  call void (ptr, i32, ptr, ...) @av_log(ptr noundef %70, i32 noundef 16, ptr noundef @.str.9)
  br label %71

71:                                               ; preds = %69, %59
  %72 = load ptr, ptr %3, align 8, !tbaa !4
  %73 = getelementptr inbounds nuw %struct.AVCodecContext, ptr %72, i32 0, i32 18
  %74 = load i32, ptr %73, align 8, !tbaa !44
  %75 = load ptr, ptr %5, align 8, !tbaa !31
  %76 = getelementptr inbounds nuw %struct.RoqContext, ptr %75, i32 0, i32 4
  store i32 %74, ptr %76, align 8, !tbaa !47
  %77 = load ptr, ptr %3, align 8, !tbaa !4
  %78 = getelementptr inbounds nuw %struct.AVCodecContext, ptr %77, i32 0, i32 19
  %79 = load i32, ptr %78, align 4, !tbaa !45
  %80 = load ptr, ptr %5, align 8, !tbaa !31
  %81 = getelementptr inbounds nuw %struct.RoqContext, ptr %80, i32 0, i32 5
  store i32 %79, ptr %81, align 4, !tbaa !48
  %82 = load ptr, ptr %4, align 8, !tbaa !29
  %83 = getelementptr inbounds nuw %struct.RoqEncContext, ptr %82, i32 0, i32 8
  store i32 0, ptr %83, align 8, !tbaa !36
  %84 = load ptr, ptr %4, align 8, !tbaa !29
  %85 = getelementptr inbounds nuw %struct.RoqEncContext, ptr %84, i32 0, i32 17
  store i32 1, ptr %85, align 8, !tbaa !49
  %86 = call ptr @av_frame_alloc()
  %87 = load ptr, ptr %5, align 8, !tbaa !31
  %88 = getelementptr inbounds nuw %struct.RoqContext, ptr %87, i32 0, i32 2
  store ptr %86, ptr %88, align 8, !tbaa !50
  %89 = call ptr @av_frame_alloc()
  %90 = load ptr, ptr %5, align 8, !tbaa !31
  %91 = getelementptr inbounds nuw %struct.RoqContext, ptr %90, i32 0, i32 3
  store ptr %89, ptr %91, align 8, !tbaa !51
  %92 = load ptr, ptr %5, align 8, !tbaa !31
  %93 = getelementptr inbounds nuw %struct.RoqContext, ptr %92, i32 0, i32 2
  %94 = load ptr, ptr %93, align 8, !tbaa !50
  %95 = icmp ne ptr %94, null
  br i1 %95, label %96, label %101

96:                                               ; preds = %71
  %97 = load ptr, ptr %5, align 8, !tbaa !31
  %98 = getelementptr inbounds nuw %struct.RoqContext, ptr %97, i32 0, i32 3
  %99 = load ptr, ptr %98, align 8, !tbaa !51
  %100 = icmp ne ptr %99, null
  br i1 %100, label %102, label %101

101:                                              ; preds = %96, %71
  store i32 -12, ptr %2, align 4
  store i32 1, ptr %6, align 4
  br label %206

102:                                              ; preds = %96
  %103 = load ptr, ptr %5, align 8, !tbaa !31
  %104 = getelementptr inbounds nuw %struct.RoqContext, ptr %103, i32 0, i32 4
  %105 = load i32, ptr %104, align 8, !tbaa !47
  %106 = load ptr, ptr %5, align 8, !tbaa !31
  %107 = getelementptr inbounds nuw %struct.RoqContext, ptr %106, i32 0, i32 5
  %108 = load i32, ptr %107, align 4, !tbaa !48
  %109 = mul nsw i32 %105, %108
  %110 = sdiv i32 %109, 16
  %111 = sext i32 %110 to i64
  %112 = call noalias ptr @av_calloc(i64 noundef %111, i64 noundef 8)
  %113 = load ptr, ptr %4, align 8, !tbaa !29
  %114 = getelementptr inbounds nuw %struct.RoqEncContext, ptr %113, i32 0, i32 4
  store ptr %112, ptr %114, align 8, !tbaa !52
  %115 = load ptr, ptr %5, align 8, !tbaa !31
  %116 = getelementptr inbounds nuw %struct.RoqContext, ptr %115, i32 0, i32 4
  %117 = load i32, ptr %116, align 8, !tbaa !47
  %118 = load ptr, ptr %5, align 8, !tbaa !31
  %119 = getelementptr inbounds nuw %struct.RoqContext, ptr %118, i32 0, i32 5
  %120 = load i32, ptr %119, align 4, !tbaa !48
  %121 = mul nsw i32 %117, %120
  %122 = sdiv i32 %121, 16
  %123 = sext i32 %122 to i64
  %124 = call ptr @av_malloc_array(i64 noundef %123, i64 noundef 8)
  %125 = load ptr, ptr %4, align 8, !tbaa !29
  %126 = getelementptr inbounds nuw %struct.RoqEncContext, ptr %125, i32 0, i32 5
  store ptr %124, ptr %126, align 8, !tbaa !53
  %127 = load ptr, ptr %5, align 8, !tbaa !31
  %128 = getelementptr inbounds nuw %struct.RoqContext, ptr %127, i32 0, i32 4
  %129 = load i32, ptr %128, align 8, !tbaa !47
  %130 = load ptr, ptr %5, align 8, !tbaa !31
  %131 = getelementptr inbounds nuw %struct.RoqContext, ptr %130, i32 0, i32 5
  %132 = load i32, ptr %131, align 4, !tbaa !48
  %133 = mul nsw i32 %129, %132
  %134 = sdiv i32 %133, 64
  %135 = sext i32 %134 to i64
  %136 = call noalias ptr @av_calloc(i64 noundef %135, i64 noundef 8)
  %137 = load ptr, ptr %4, align 8, !tbaa !29
  %138 = getelementptr inbounds nuw %struct.RoqEncContext, ptr %137, i32 0, i32 6
  store ptr %136, ptr %138, align 8, !tbaa !54
  %139 = load ptr, ptr %5, align 8, !tbaa !31
  %140 = getelementptr inbounds nuw %struct.RoqContext, ptr %139, i32 0, i32 4
  %141 = load i32, ptr %140, align 8, !tbaa !47
  %142 = load ptr, ptr %5, align 8, !tbaa !31
  %143 = getelementptr inbounds nuw %struct.RoqContext, ptr %142, i32 0, i32 5
  %144 = load i32, ptr %143, align 4, !tbaa !48
  %145 = mul nsw i32 %141, %144
  %146 = sdiv i32 %145, 64
  %147 = sext i32 %146 to i64
  %148 = call ptr @av_malloc_array(i64 noundef %147, i64 noundef 8)
  %149 = load ptr, ptr %4, align 8, !tbaa !29
  %150 = getelementptr inbounds nuw %struct.RoqEncContext, ptr %149, i32 0, i32 7
  store ptr %148, ptr %150, align 8, !tbaa !55
  %151 = load ptr, ptr %5, align 8, !tbaa !31
  %152 = getelementptr inbounds nuw %struct.RoqContext, ptr %151, i32 0, i32 4
  %153 = load i32, ptr %152, align 8, !tbaa !47
  %154 = load ptr, ptr %5, align 8, !tbaa !31
  %155 = getelementptr inbounds nuw %struct.RoqContext, ptr %154, i32 0, i32 5
  %156 = load i32, ptr %155, align 4, !tbaa !48
  %157 = mul nsw i32 %153, %156
  %158 = sext i32 %157 to i64
  %159 = call ptr @av_malloc_array(i64 noundef %158, i64 noundef 12)
  %160 = load ptr, ptr %4, align 8, !tbaa !29
  %161 = getelementptr inbounds nuw %struct.RoqEncContext, ptr %160, i32 0, i32 15
  store ptr %159, ptr %161, align 8, !tbaa !56
  %162 = load ptr, ptr %4, align 8, !tbaa !29
  %163 = getelementptr inbounds nuw %struct.RoqEncContext, ptr %162, i32 0, i32 4
  %164 = load ptr, ptr %163, align 8, !tbaa !52
  %165 = icmp ne ptr %164, null
  br i1 %165, label %166, label %186

166:                                              ; preds = %102
  %167 = load ptr, ptr %4, align 8, !tbaa !29
  %168 = getelementptr inbounds nuw %struct.RoqEncContext, ptr %167, i32 0, i32 5
  %169 = load ptr, ptr %168, align 8, !tbaa !53
  %170 = icmp ne ptr %169, null
  br i1 %170, label %171, label %186

171:                                              ; preds = %166
  %172 = load ptr, ptr %4, align 8, !tbaa !29
  %173 = getelementptr inbounds nuw %struct.RoqEncContext, ptr %172, i32 0, i32 6
  %174 = load ptr, ptr %173, align 8, !tbaa !54
  %175 = icmp ne ptr %174, null
  br i1 %175, label %176, label %186

176:                                              ; preds = %171
  %177 = load ptr, ptr %4, align 8, !tbaa !29
  %178 = getelementptr inbounds nuw %struct.RoqEncContext, ptr %177, i32 0, i32 7
  %179 = load ptr, ptr %178, align 8, !tbaa !55
  %180 = icmp ne ptr %179, null
  br i1 %180, label %181, label %186

181:                                              ; preds = %176
  %182 = load ptr, ptr %4, align 8, !tbaa !29
  %183 = getelementptr inbounds nuw %struct.RoqEncContext, ptr %182, i32 0, i32 15
  %184 = load ptr, ptr %183, align 8, !tbaa !56
  %185 = icmp ne ptr %184, null
  br i1 %185, label %187, label %186

186:                                              ; preds = %181, %176, %171, %166, %102
  store i32 -12, ptr %2, align 4
  store i32 1, ptr %6, align 4
  br label %206

187:                                              ; preds = %181
  %188 = load ptr, ptr %4, align 8, !tbaa !29
  %189 = getelementptr inbounds nuw %struct.RoqEncContext, ptr %188, i32 0, i32 15
  %190 = load ptr, ptr %189, align 8, !tbaa !56
  %191 = load ptr, ptr %5, align 8, !tbaa !31
  %192 = getelementptr inbounds nuw %struct.RoqContext, ptr %191, i32 0, i32 4
  %193 = load i32, ptr %192, align 8, !tbaa !47
  %194 = load ptr, ptr %5, align 8, !tbaa !31
  %195 = getelementptr inbounds nuw %struct.RoqContext, ptr %194, i32 0, i32 5
  %196 = load i32, ptr %195, align 4, !tbaa !48
  %197 = mul nsw i32 %193, %196
  %198 = mul nsw i32 %197, 3
  %199 = sdiv i32 %198, 2
  %200 = sext i32 %199 to i64
  %201 = getelementptr inbounds i32, ptr %190, i64 %200
  %202 = load ptr, ptr %4, align 8, !tbaa !29
  %203 = getelementptr inbounds nuw %struct.RoqEncContext, ptr %202, i32 0, i32 16
  store ptr %201, ptr %203, align 8, !tbaa !57
  %204 = load ptr, ptr %4, align 8, !tbaa !29
  %205 = call i32 @create_cel_evals(ptr noundef %204)
  store i32 %205, ptr %2, align 4
  store i32 1, ptr %6, align 4
  br label %206

206:                                              ; preds = %187, %186, %101, %42, %30
  call void @llvm.lifetime.end.p0(i64 8, ptr %5) #9
  call void @llvm.lifetime.end.p0(i64 8, ptr %4) #9
  %207 = load i32, ptr %2, align 4
  ret i32 %207
}