; Function Attrs: cold nounwind optsize uwtable
define internal range(i32 -22, 1) i32 @roq_encode_init(ptr noundef %0) #0 {
  %2 = getelementptr inbounds nuw i8, ptr %0, i64 32
  %3 = load ptr, ptr %2, align 8, !tbaa !4
  %4 = getelementptr inbounds nuw i8, ptr %3, i64 5680
  tail call void @av_lfg_init(ptr noundef nonnull %4, i32 noundef 1) #9
  %5 = getelementptr inbounds nuw i8, ptr %3, i64 8
  store ptr %0, ptr %5, align 8, !tbaa !27
  %6 = getelementptr inbounds nuw i8, ptr %3, i64 5984
  store i32 0, ptr %6, align 8, !tbaa !30
  %7 = getelementptr inbounds nuw i8, ptr %0, i64 112
  %8 = load i32, ptr %7, align 8, !tbaa !38
  %9 = and i32 %8, 15
  %.not = icmp eq i32 %9, 0
  br i1 %.not, label %10, label %14

10:                                               ; preds = %1
  %11 = getelementptr inbounds nuw i8, ptr %0, i64 116
  %12 = load i32, ptr %11, align 4, !tbaa !39
  %13 = and i32 %12, 15
  %.not56 = icmp eq i32 %13, 0
  br i1 %.not56, label %15, label %14

14:                                               ; preds = %10, %1
  tail call void (ptr, i32, ptr, ...) @av_log(ptr noundef nonnull %0, i32 noundef 16, ptr noundef nonnull @.str.7) #9
  br label %89

15:                                               ; preds = %10
  %16 = icmp sgt i32 %8, 65535
  %17 = icmp sgt i32 %12, 65535
  %or.cond = or i1 %16, %17
  br i1 %or.cond, label %18, label %22

18:                                               ; preds = %15
  %19 = getelementptr inbounds nuw i8, ptr %3, i64 107452
  %20 = load i32, ptr %19, align 4, !tbaa !40
  %.not66 = icmp eq i32 %20, 0
  %21 = select i1 %.not66, i32 65535, i32 32768
  tail call void (ptr, i32, ptr, ...) @av_log(ptr noundef nonnull %0, i32 noundef 16, ptr noundef nonnull @.str.8, i32 noundef %21) #9
  br label %89

22:                                               ; preds = %15
  %23 = tail call range(i32 0, 29) i32 @llvm.ctpop.i32(i32 %8)
  %.not57 = icmp samesign ult i32 %23, 2
  %24 = tail call range(i32 0, 29) i32 @llvm.ctpop.i32(i32 %12)
  %.not58 = icmp samesign ult i32 %24, 2
  %or.cond67 = select i1 %.not57, i1 %.not58, i1 false
  br i1 %or.cond67, label %26, label %25

25:                                               ; preds = %22
  tail call void (ptr, i32, ptr, ...) @av_log(ptr noundef nonnull %0, i32 noundef 16, ptr noundef nonnull @.str.9) #9
  %.pre = load i32, ptr %7, align 8, !tbaa !38
  %.pre70 = load i32, ptr %11, align 4, !tbaa !39
  br label %26

26:                                               ; preds = %22, %25
  %27 = phi i32 [ %12, %22 ], [ %.pre70, %25 ]
  %28 = phi i32 [ %8, %22 ], [ %.pre, %25 ]
  %29 = getelementptr inbounds nuw i8, ptr %3, i64 32
  store i32 %28, ptr %29, align 8, !tbaa !41
  %30 = getelementptr inbounds nuw i8, ptr %3, i64 36
  store i32 %27, ptr %30, align 4, !tbaa !42
  store i32 0, ptr %6, align 8, !tbaa !30
  %31 = getelementptr inbounds nuw i8, ptr %3, i64 107448
  store i32 1, ptr %31, align 8, !tbaa !43
  %32 = tail call ptr @av_frame_alloc() #9
  %33 = getelementptr inbounds nuw i8, ptr %3, i64 16
  store ptr %32, ptr %33, align 8, !tbaa !44
  %34 = tail call ptr @av_frame_alloc() #9
  %35 = getelementptr inbounds nuw i8, ptr %3, i64 24
  store ptr %34, ptr %35, align 8, !tbaa !45
  %36 = load ptr, ptr %33, align 8, !tbaa !44
  %.not59 = icmp eq ptr %36, null
  %.not60 = icmp eq ptr %34, null
  %or.cond68 = select i1 %.not59, i1 true, i1 %.not60
  br i1 %or.cond68, label %89, label %37

37:                                               ; preds = %26
  %38 = load i32, ptr %29, align 8, !tbaa !41
  %39 = load i32, ptr %30, align 4, !tbaa !42
  %40 = mul nsw i32 %39, %38
  %41 = sdiv i32 %40, 16
  %42 = sext i32 %41 to i64
  %43 = tail call noalias ptr @av_calloc(i64 noundef %42, i64 noundef 8) #9
  %44 = getelementptr inbounds nuw i8, ptr %3, i64 5952
  store ptr %43, ptr %44, align 8, !tbaa !46
  %45 = load i32, ptr %29, align 8, !tbaa !41
  %46 = load i32, ptr %30, align 4, !tbaa !42
  %47 = mul nsw i32 %46, %45
  %48 = sdiv i32 %47, 16
  %49 = sext i32 %48 to i64
  %50 = tail call ptr @av_malloc_array(i64 noundef %49, i64 noundef 8) #9
  %51 = getelementptr inbounds nuw i8, ptr %3, i64 5960
  store ptr %50, ptr %51, align 8, !tbaa !47
  %52 = load i32, ptr %29, align 8, !tbaa !41
  %53 = load i32, ptr %30, align 4, !tbaa !42
  %54 = mul nsw i32 %53, %52
  %55 = sdiv i32 %54, 64
  %56 = sext i32 %55 to i64
  %57 = tail call noalias ptr @av_calloc(i64 noundef %56, i64 noundef 8) #9
  %58 = getelementptr inbounds nuw i8, ptr %3, i64 5968
  store ptr %57, ptr %58, align 8, !tbaa !48
  %59 = load i32, ptr %29, align 8, !tbaa !41
  %60 = load i32, ptr %30, align 4, !tbaa !42
  %61 = mul nsw i32 %60, %59
  %62 = sdiv i32 %61, 64
  %63 = sext i32 %62 to i64
  %64 = tail call ptr @av_malloc_array(i64 noundef %63, i64 noundef 8) #9
  %65 = getelementptr inbounds nuw i8, ptr %3, i64 5976
  store ptr %64, ptr %65, align 8, !tbaa !49
  %66 = load i32, ptr %29, align 8, !tbaa !41
  %67 = load i32, ptr %30, align 4, !tbaa !42
  %68 = mul nsw i32 %67, %66
  %69 = sext i32 %68 to i64
  %70 = tail call ptr @av_malloc_array(i64 noundef %69, i64 noundef 12) #9
  %71 = getelementptr inbounds nuw i8, ptr %3, i64 107432
  store ptr %70, ptr %71, align 8, !tbaa !50
  %72 = load ptr, ptr %44, align 8, !tbaa !46
  %.not61 = icmp eq ptr %72, null
  br i1 %.not61, label %89, label %73

73:                                               ; preds = %37
  %74 = load ptr, ptr %51, align 8, !tbaa !47
  %.not62 = icmp eq ptr %74, null
  br i1 %.not62, label %89, label %75

75:                                               ; preds = %73
  %76 = load ptr, ptr %58, align 8, !tbaa !48
  %.not63 = icmp eq ptr %76, null
  br i1 %.not63, label %89, label %77

77:                                               ; preds = %75
  %78 = load ptr, ptr %65, align 8, !tbaa !49
  %.not64 = icmp eq ptr %78, null
  %.not65 = icmp eq ptr %70, null
  %or.cond69 = select i1 %.not64, i1 true, i1 %.not65
  br i1 %or.cond69, label %89, label %79

79:                                               ; preds = %77
  %80 = load i32, ptr %29, align 8, !tbaa !41
  %81 = load i32, ptr %30, align 4, !tbaa !42
  %82 = mul i32 %80, 3
  %83 = mul i32 %82, %81
  %84 = sdiv i32 %83, 2
  %85 = sext i32 %84 to i64
  %86 = getelementptr inbounds i32, ptr %70, i64 %85
  %87 = getelementptr inbounds nuw i8, ptr %3, i64 107440
  store ptr %86, ptr %87, align 8, !tbaa !51
  %88 = tail call fastcc i32 @create_cel_evals(ptr noundef nonnull %3)
  br label %89

89:                                               ; preds = %37, %73, %75, %77, %26, %79, %18, %14
  %.0 = phi i32 [ -22, %14 ], [ -22, %18 ], [ %88, %79 ], [ -12, %26 ], [ -12, %77 ], [ -12, %75 ], [ -12, %73 ], [ -12, %37 ]
  ret i32 %.0
}